target datalayout = "e-m:e-p270:32:32-p271:32:32-p272:64:64-i64:64-i128:128-f80:128-n8:16:32:64-S128"
target triple = "x86_64-pc-linux-gnu"

@proto_register_openflow_v1.ett = internal global [8 x ptr] [ptr @ett_openflow, ptr @ett_openflow_path_id, ptr @ett_openflow_cap, ptr @ett_openflow_act, ptr @ett_openflow_port, ptr @ett_openflow_port_cnf, ptr @ett_openflow_port_state, ptr @ett_openflow_port_cf], align 16
@.str.204 = private unnamed_addr constant [13 x i8] c"OpenFlow 1.0\00", align 1
@.str.205 = private unnamed_addr constant [12 x i8] c"openflow_v1\00", align 1
@proto_openflow_v1 = internal global i32 0, align 4

; Function Attrs: null_pointer_is_valid sspstrong uwtable
define hidden void @proto_register_openflow_v1() #0 {
  %1 = alloca ptr, align 8
  call void @llvm.lifetime.start.p0(i64 8, ptr %1) #3
  %2 = call i32 @proto_register_protocol(ptr noundef @.str.204, ptr noundef @.str.205, ptr noundef @.str.205)
  store i32 %2, ptr @proto_openflow_v1, align 4
  %3 = load i32, ptr @proto_openflow_v1, align 4
  %4 = call ptr @register_dissector(ptr noundef @.str.205, ptr noundef @dissect_openflow_v1, i32 noundef %3)
  %5 = load i32, ptr @proto_openflow_v1, align 4
  call void @proto_register_field_array(i32 noundef %5, ptr noundef @proto_register_openflow_v1.hf, i32 noundef 105)
  call void @proto_register_subtree_array(ptr noundef @proto_register_openflow_v1.ett, i32 noundef 8)
  %6 = load i32, ptr @proto_openflow_v1, align 4
  %7 = call ptr @expert_register_protocol(i32 noundef %6)
  store ptr %7, ptr %1, align 8
  %8 = load ptr, ptr %1, align 8
  call void @expert_register_field_array(ptr noundef %8, ptr noundef @proto_register_openflow_v1.ei, i32 noundef 2)
  call void @llvm.lifetime.end.p0(i64 8, ptr %1) #3
  ret void
}