; Function Attrs: null_pointer_is_valid sspstrong uwtable
define hidden void @proto_register_openflow_v1() local_unnamed_addr #0 {
  %1 = tail call i32 @proto_register_protocol(ptr noundef nonnull @.str.204, ptr noundef nonnull @.str.205, ptr noundef nonnull @.str.205)
  store i32 %1, ptr @proto_openflow_v1, align 4
  %2 = tail call ptr @register_dissector(ptr noundef nonnull @.str.205, ptr noundef nonnull @dissect_openflow_v1, i32 noundef %1)
  %3 = load i32, ptr @proto_openflow_v1, align 4
  tail call void @proto_register_field_array(i32 noundef %3, ptr noundef nonnull @proto_register_openflow_v1.hf, i32 noundef 105)
  tail call void @proto_register_subtree_array(ptr noundef nonnull @proto_register_openflow_v1.ett, i32 noundef 8)
  %4 = load i32, ptr @proto_openflow_v1, align 4
  %5 = tail call ptr @expert_register_protocol(i32 noundef %4)
  tail call void @expert_register_field_array(ptr noundef %5, ptr noundef nonnull @proto_register_openflow_v1.ei, i32 noundef 2)
  ret void
}